target datalayout = "e-m:e-p270:32:32-p271:32:32-p272:64:64-i64:64-i128:128-f80:128-n8:16:32:64-S128"
target triple = "x86_64-pc-linux-gnu"

%struct.btMultibodyLink = type { float, %class.btVector3, i32, %class.btQuaternion, %class.btVector3, %class.btVector3, %struct.btSpatialMotionVector, %struct.btSpatialMotionVector, [6 x %struct.btSpatialMotionVector], i32, i32, %class.btQuaternion, %class.btVector3, %class.btQuaternion, %class.btVector3, %class.btVector3, %class.btVector3, %class.btVector3, %class.btVector3, [7 x float], [7 x float], [6 x float], ptr, i32, i32, i32, i32, ptr, %class.btTransform, ptr, ptr, ptr, float, float, float, float, float, float }
%struct.btSpatialMotionVector = type { %class.btVector3, %class.btVector3 }
%class.btQuaternion = type { %class.btQuadWord }
%class.btQuadWord = type { [4 x float] }
%class.btVector3 = type { [4 x float] }
%class.btTransform = type { %class.btMatrix3x3, %class.btVector3 }
%class.btMatrix3x3 = type { [3 x %class.btVector3] }
%class.btMultiBodyConstraint = type { ptr, ptr, ptr, i32, i32, i32, i32, i32, i32, i32, i8, i32, float, %class.btAlignedObjectArray }
%class.btAlignedObjectArray = type <{ [4 x i8], i32, i32, [4 x i8], ptr, i8, [7 x i8] }>
%class.btMultiBody = type { ptr, ptr, ptr, %class.btVector3, %class.btVector3, %class.btQuaternion, %class.btQuaternion, float, %class.btVector3, %class.btVector3, %class.btVector3, %class.btVector3, %class.btVector3, [4 x i8], %class.btAlignedObjectArray.0, %class.btAlignedObjectArray, %class.btAlignedObjectArray, %class.btAlignedObjectArray, %class.btAlignedObjectArray.2, %class.btAlignedObjectArray.4, %class.btMatrix3x3, %class.btMatrix3x3, %class.btMatrix3x3, %class.btMatrix3x3, i8, i8, i8, i8, i8, float, float, float, ptr, i32, i32, i32, float, float, i8, float, float, i8, i8, i32, i32, i8, i8, i8, i8 }
%class.btAlignedObjectArray.0 = type <{ [4 x i8], i32, i32, [4 x i8], ptr, i8, [7 x i8] }>
%class.btAlignedObjectArray.2 = type <{ [4 x i8], i32, i32, [4 x i8], ptr, i8, [7 x i8] }>
%class.btAlignedObjectArray.4 = type <{ [4 x i8], i32, i32, [4 x i8], ptr, i8, [7 x i8] }>

; Function Attrs: inlinehint mustprogress nounwind uwtable
define linkonce_odr dso_local noundef nonnull align 4 dereferenceable(4) ptr @_ZN20btAlignedObjectArrayIfEixEi(ptr noundef nonnull align 8 dereferenceable(25) %0, i32 noundef %1) #6 comdat align 2 {
  %3 = alloca ptr, align 8
  %4 = alloca i32, align 4
  store ptr %0, ptr %3, align 8, !tbaa !118
  store i32 %1, ptr %4, align 4, !tbaa !9
  %5 = load ptr, ptr %3, align 8
  %6 = getelementptr inbounds nuw %class.btAlignedObjectArray, ptr %5, i32 0, i32 4
  %7 = load ptr, ptr %6, align 8, !tbaa !120
  %8 = load i32, ptr %4, align 4, !tbaa !9
  %9 = sext i32 %8 to i64
  %10 = getelementptr inbounds float, ptr %7, i64 %9
  ret ptr %10
}

; Function Attrs: inlinehint mustprogress nounwind uwtable
define linkonce_odr dso_local noundef nonnull align 8 dereferenceable(688) ptr @_ZN20btAlignedObjectArrayI15btMultibodyLinkEixEi(ptr noundef nonnull align 8 dereferenceable(25) %0, i32 noundef %1) #6 comdat align 2 {
  %3 = alloca ptr, align 8
  %4 = alloca i32, align 4
  store ptr %0, ptr %3, align 8, !tbaa !115
  store i32 %1, ptr %4, align 4, !tbaa !9
  %5 = load ptr, ptr %3, align 8
  %6 = getelementptr inbounds nuw %class.btAlignedObjectArray.0, ptr %5, i32 0, i32 4
  %7 = load ptr, ptr %6, align 8, !tbaa !117
  %8 = load i32, ptr %4, align 4, !tbaa !9
  %9 = sext i32 %8 to i64
  %10 = getelementptr inbounds %struct.btMultibodyLink, ptr %7, i64 %9
  ret ptr %10
}

; Function Attrs: mustprogress nounwind uwtable
define linkonce_odr dso_local noundef ptr @_ZN21btMultiBodyConstraint9jacobianBEi(ptr noundef nonnull align 8 dereferenceable(96) %0, i32 noundef %1) #1 comdat align 2 {
  %3 = alloca ptr, align 8
  %4 = alloca i32, align 4
  store ptr %0, ptr %3, align 8, !tbaa !45
  store i32 %1, ptr %4, align 4, !tbaa !9
  %5 = load ptr, ptr %3, align 8
  %6 = getelementptr inbounds nuw %class.btMultiBodyConstraint, ptr %5, i32 0, i32 13
  %7 = getelementptr inbounds nuw %class.btMultiBodyConstraint, ptr %5, i32 0, i32 6
  %8 = load i32, ptr %7, align 4, !tbaa !47
  %9 = load i32, ptr %4, align 4, !tbaa !9
  %10 = getelementptr inbounds nuw %class.btMultiBodyConstraint, ptr %5, i32 0, i32 8
  %11 = load i32, ptr %10, align 4, !tbaa !43
  %12 = mul nsw i32 %9, %11
  %13 = add nsw i32 %8, %12
  %14 = getelementptr inbounds nuw %class.btMultiBodyConstraint, ptr %5, i32 0, i32 7
  %15 = load i32, ptr %14, align 8, !tbaa !48
  %16 = add nsw i32 %13, %15
  %17 = call noundef nonnull align 4 dereferenceable(4) ptr @_ZN20btAlignedObjectArrayIfEixEi(ptr noundef nonnull align 8 dereferenceable(25) %6, i32 noundef %16)
  ret ptr %17
}

; Function Attrs: mustprogress uwtable
define linkonce_odr dso_local noundef ptr @_ZN21btMultiBodyConstraint9jacobianAEi(ptr noundef nonnull align 8 dereferenceable(96) %0, i32 noundef %1) #2 comdat align 2 {
  %3 = alloca ptr, align 8
  %4 = alloca i32, align 4
  store ptr %0, ptr %3, align 8, !tbaa !45
  store i32 %1, ptr %4, align 4, !tbaa !9
  %5 = load ptr, ptr %3, align 8
  %6 = getelementptr inbounds nuw %class.btMultiBodyConstraint, ptr %5, i32 0, i32 13
  %7 = getelementptr inbounds nuw %class.btMultiBodyConstraint, ptr %5, i32 0, i32 6
  %8 = load i32, ptr %7, align 4, !tbaa !47
  %9 = load i32, ptr %4, align 4, !tbaa !9
  %10 = getelementptr inbounds nuw %class.btMultiBodyConstraint, ptr %5, i32 0, i32 8
  %11 = load i32, ptr %10, align 4, !tbaa !43
  %12 = mul nsw i32 %9, %11
  %13 = add nsw i32 %8, %12
  %14 = call noundef nonnull align 4 dereferenceable(4) ptr @_ZN20btAlignedObjectArrayIfEixEi(ptr noundef nonnull align 8 dereferenceable(25) %6, i32 noundef %13)
  ret ptr %14
}

; Function Attrs: mustprogress uwtable
define linkonce_odr dso_local noundef nonnull align 8 dereferenceable(688) ptr @_ZN11btMultiBody7getLinkEi(ptr noundef nonnull align 8 dereferenceable(640) %0, i32 noundef %1) #2 comdat align 2 {
  %3 = alloca ptr, align 8
  %4 = alloca i32, align 4
  store ptr %0, ptr %3, align 8, !tbaa !14
  store i32 %1, ptr %4, align 4, !tbaa !9
  %5 = load ptr, ptr %3, align 8
  %6 = getelementptr inbounds nuw %class.btMultiBody, ptr %5, i32 0, i32 14
  %7 = load i32, ptr %4, align 4, !tbaa !9
  %8 = call noundef nonnull align 8 dereferenceable(688) ptr @_ZN20btAlignedObjectArrayI15btMultibodyLinkEixEi(ptr noundef nonnull align 8 dereferenceable(25) %6, i32 noundef %7)
  ret ptr %8
}

; Function Attrs: mustprogress uwtable
define dso_local void @_ZN31btMultiBodyJointLimitConstraint16finalizeMultiDofEv(ptr noundef nonnull align 8 dereferenceable(104) %0) unnamed_addr #2 align 2 {
  %2 = alloca ptr, align 8
  %3 = alloca i32, align 4
  store ptr %0, ptr %2, align 8, !tbaa !12
  %4 = load ptr, ptr %2, align 8
  call void @_ZN21btMultiBodyConstraint25allocateJacobiansMultiDofEv(ptr noundef nonnull align 8 dereferenceable(96) %4)
  call void @llvm.lifetime.start.p0(i64 4, ptr %3) #13
  %5 = getelementptr inbounds nuw %class.btMultiBodyConstraint, ptr %4, i32 0, i32 1
  %6 = load ptr, ptr %5, align 8, !tbaa !40
  %7 = getelementptr inbounds nuw %class.btMultiBodyConstraint, ptr %4, i32 0, i32 3
  %8 = load i32, ptr %7, align 8, !tbaa !41
  %9 = call noundef nonnull align 8 dereferenceable(688) ptr @_ZN11btMultiBody7getLinkEi(ptr noundef nonnull align 8 dereferenceable(640) %6, i32 noundef %8)
  %10 = getelementptr inbounds nuw %struct.btMultibodyLink, ptr %9, i32 0, i32 9
  %11 = load i32, ptr %10, align 8, !tbaa !42
  %12 = add nsw i32 6, %11
  store i32 %12, ptr %3, align 4, !tbaa !9
  %13 = call noundef ptr @_ZN21btMultiBodyConstraint9jacobianAEi(ptr noundef nonnull align 8 dereferenceable(96) %4, i32 noundef 0)
  %14 = load i32, ptr %3, align 4, !tbaa !9
  %15 = zext i32 %14 to i64
  %16 = getelementptr inbounds nuw float, ptr %13, i64 %15
  store float 1.000000e+00, ptr %16, align 4, !tbaa !16
  %17 = call noundef ptr @_ZN21btMultiBodyConstraint9jacobianBEi(ptr noundef nonnull align 8 dereferenceable(96) %4, i32 noundef 1)
  %18 = load i32, ptr %3, align 4, !tbaa !9
  %19 = zext i32 %18 to i64
  %20 = getelementptr inbounds nuw float, ptr %17, i64 %19
  store float -1.000000e+00, ptr %20, align 4, !tbaa !16
  %21 = getelementptr inbounds nuw %class.btMultiBodyConstraint, ptr %4, i32 0, i32 8
  %22 = load i32, ptr %21, align 4, !tbaa !43
  %23 = getelementptr inbounds nuw %class.btMultiBodyConstraint, ptr %4, i32 0, i32 11
  store i32 %22, ptr %23, align 8, !tbaa !44
  call void @llvm.lifetime.end.p0(i64 4, ptr %3) #13
  ret void
}