; Function Attrs: mustprogress uwtable
define dso_local void @_ZN31btMultiBodyJointLimitConstraint16finalizeMultiDofEv(ptr noundef nonnull align 8 dereferenceable(104) %0) unnamed_addr #0 align 2 {
  tail call void @_ZN21btMultiBodyConstraint25allocateJacobiansMultiDofEv(ptr noundef nonnull align 8 dereferenceable(96) %0)
  %2 = getelementptr inbounds nuw i8, ptr %0, i64 8
  %3 = load ptr, ptr %2, align 8, !tbaa !36
  %4 = getelementptr inbounds nuw i8, ptr %0, i64 24
  %5 = load i32, ptr %4, align 8, !tbaa !37
  %6 = getelementptr inbounds nuw i8, ptr %3, i64 192
  %7 = load ptr, ptr %6, align 8, !tbaa !4
  %8 = sext i32 %5 to i64
  %9 = getelementptr inbounds %struct.btMultibodyLink, ptr %7, i64 %8, i32 9
  %10 = load i32, ptr %9, align 8, !tbaa !38
  %11 = add nsw i32 %10, 6
  %12 = getelementptr inbounds nuw i8, ptr %0, i64 36
  %13 = load i32, ptr %12, align 4, !tbaa !39
  %14 = getelementptr inbounds nuw i8, ptr %0, i64 44
  %15 = getelementptr inbounds nuw i8, ptr %0, i64 80
  %16 = load ptr, ptr %15, align 8, !tbaa !40
  %17 = sext i32 %13 to i64
  %18 = getelementptr inbounds float, ptr %16, i64 %17
  %19 = zext i32 %11 to i64
  %20 = getelementptr inbounds nuw float, ptr %18, i64 %19
  store float 1.000000e+00, ptr %20, align 4, !tbaa !41
  %21 = load i32, ptr %14, align 4, !tbaa !42
  %22 = add nsw i32 %21, %13
  %23 = getelementptr inbounds nuw i8, ptr %0, i64 40
  %24 = load i32, ptr %23, align 8, !tbaa !43
  %25 = add nsw i32 %22, %24
  %26 = sext i32 %25 to i64
  %27 = getelementptr inbounds float, ptr %16, i64 %26
  %28 = getelementptr inbounds nuw float, ptr %27, i64 %19
  store float -1.000000e+00, ptr %28, align 4, !tbaa !41
  %29 = getelementptr inbounds nuw i8, ptr %0, i64 56
  store i32 %21, ptr %29, align 8, !tbaa !44
  ret void
}